target datalayout = "e-m:e-p270:32:32-p271:32:32-p272:64:64-i64:64-i128:128-f80:128-n8:16:32:64-S128"
target triple = "x86_64-pc-linux-gnu"

%struct._packet_info = type { ptr, ptr, i32, i32, %struct.nstime_t, %struct.nstime_t, %struct.nstime_t, i8, ptr, ptr, ptr, ptr, %struct._address, %struct._address, %struct._address, %struct._address, %struct._address, %struct._address, i32, ptr, i8, [3 x i8], %struct.anon, i32, i32, i32, i32, ptr, i8, ptr, ptr, i16, i16, i32, i32, i16, i32, i32, ptr, ptr, ptr, i8, i8, i16, i16, i16, i32, i16, i16, ptr, ptr, ptr, ptr, ptr, i32, i32 }
%struct.nstime_t = type { i64, i32 }
%struct._address = type { i32, i32, ptr, ptr }
%struct.anon = type { i8, [3 x i8] }

@hf_juniper_vlan = internal global i32 0, align 4
@hf_juniper_proto = internal global i32 0, align 4
@ett_juniper = internal global i32 0, align 4
@.str.238 = private unnamed_addr constant [13 x i8] c"Juniper GGSN\00", align 1

; Function Attrs: null_pointer_is_valid sspstrong uwtable
define internal i32 @dissect_juniper_ggsn(ptr noundef %0, ptr noundef %1, ptr noundef %2, ptr noundef %3) #0 {
  %5 = alloca i32, align 4
  %6 = alloca ptr, align 8
  %7 = alloca ptr, align 8
  %8 = alloca ptr, align 8
  %9 = alloca ptr, align 8
  %10 = alloca ptr, align 8
  %11 = alloca i32, align 4
  %12 = alloca i32, align 4
  %13 = alloca i8, align 1
  %14 = alloca i16, align 2
  %15 = alloca i32, align 4
  store ptr %0, ptr %6, align 8
  store ptr %1, ptr %7, align 8
  store ptr %2, ptr %8, align 8
  store ptr %3, ptr %9, align 8
  call void @llvm.lifetime.start.p0(i64 8, ptr %10) #5
  call void @llvm.lifetime.start.p0(i64 4, ptr %11) #5
  store i32 0, ptr %11, align 4
  call void @llvm.lifetime.start.p0(i64 4, ptr %12) #5
  call void @llvm.lifetime.start.p0(i64 1, ptr %13) #5
  call void @llvm.lifetime.start.p0(i64 2, ptr %14) #5
  %16 = load ptr, ptr %7, align 8
  %17 = getelementptr inbounds nuw %struct._packet_info, ptr %16, i32 0, i32 1
  %18 = load ptr, ptr %17, align 8
  call void @col_set_str(ptr noundef %18, i32 noundef 35, ptr noundef @.str.238)
  %19 = load ptr, ptr %7, align 8
  %20 = getelementptr inbounds nuw %struct._packet_info, ptr %19, i32 0, i32 1
  %21 = load ptr, ptr %20, align 8
  call void @col_clear(ptr noundef %21, i32 noundef 25)
  %22 = load ptr, ptr %8, align 8
  %23 = load ptr, ptr %6, align 8
  %24 = load i32, ptr %11, align 4
  %25 = load i32, ptr @ett_juniper, align 4
  %26 = call ptr @proto_tree_add_subtree(ptr noundef %22, ptr noundef %23, i32 noundef %24, i32 noundef 4, i32 noundef %25, ptr noundef null, ptr noundef @.str.238)
  store ptr %26, ptr %10, align 8
  %27 = load ptr, ptr %6, align 8
  %28 = load ptr, ptr %7, align 8
  %29 = load ptr, ptr %8, align 8
  %30 = load ptr, ptr %10, align 8
  %31 = call i32 @dissect_juniper_header(ptr noundef %27, ptr noundef %28, ptr noundef %29, ptr noundef %30, ptr noundef %13)
  store i32 %31, ptr %12, align 4
  %32 = load i32, ptr %12, align 4
  %33 = icmp eq i32 %32, -1
  br i1 %33, label %34, label %35

34:                                               ; preds = %4
  store i32 4, ptr %5, align 4
  store i32 1, ptr %15, align 4
  br label %68

35:                                               ; preds = %4
  %36 = load i32, ptr %12, align 4
  %37 = load i32, ptr %11, align 4
  %38 = add i32 %37, %36
  store i32 %38, ptr %11, align 4
  br label %39

39:                                               ; preds = %35
  %40 = load ptr, ptr %6, align 8
  %41 = load i32, ptr %11, align 4
  %42 = call zeroext i16 @tvb_get_letohs(ptr noundef %40, i32 noundef %41)
  store i16 %42, ptr %14, align 2
  %43 = load ptr, ptr %10, align 8
  %44 = load i32, ptr @hf_juniper_proto, align 4
  %45 = load ptr, ptr %6, align 8
  %46 = load i32, ptr %11, align 4
  %47 = load i16, ptr %14, align 2
  %48 = zext i16 %47 to i32
  %49 = call ptr @proto_tree_add_uint(ptr noundef %43, i32 noundef %44, ptr noundef %45, i32 noundef %46, i32 noundef 2, i32 noundef %48)
  %50 = load ptr, ptr %10, align 8
  %51 = load i32, ptr @hf_juniper_vlan, align 4
  %52 = load ptr, ptr %6, align 8
  %53 = load i32, ptr %11, align 4
  %54 = add i32 %53, 2
  %55 = call ptr @proto_tree_add_item(ptr noundef %50, i32 noundef %51, ptr noundef %52, i32 noundef %54, i32 noundef 2, i32 noundef -2147483648)
  %56 = load i32, ptr %11, align 4
  %57 = add i32 %56, 4
  store i32 %57, ptr %11, align 4
  %58 = load ptr, ptr %6, align 8
  %59 = load ptr, ptr %7, align 8
  %60 = load ptr, ptr %8, align 8
  %61 = load ptr, ptr %10, align 8
  %62 = load i16, ptr %14, align 2
  %63 = zext i16 %62 to i32
  %64 = load i32, ptr %11, align 4
  %65 = call i32 @dissect_juniper_payload_proto(ptr noundef %58, ptr noundef %59, ptr noundef %60, ptr noundef %61, i32 noundef %63, i32 noundef %64)
  %66 = load ptr, ptr %6, align 8
  %67 = call i32 @tvb_captured_length(ptr noundef %66)
  store i32 %67, ptr %5, align 4
  store i32 1, ptr %15, align 4
  br label %68

68:                                               ; preds = %39, %34
  call void @llvm.lifetime.end.p0(i64 2, ptr %14) #5
  call void @llvm.lifetime.end.p0(i64 1, ptr %13) #5
  call void @llvm.lifetime.end.p0(i64 4, ptr %12) #5
  call void @llvm.lifetime.end.p0(i64 4, ptr %11) #5
  call void @llvm.lifetime.end.p0(i64 8, ptr %10) #5
  %69 = load i32, ptr %5, align 4
  ret i32 %69
}