; Function Attrs: null_pointer_is_valid sspstrong uwtable
define internal i32 @dissect_juniper_ggsn(ptr noundef %0, ptr noundef %1, ptr noundef %2, ptr readnone captures(none) %3) #0 {
  %5 = alloca i8, align 1
  call void @llvm.lifetime.start.p0(i64 1, ptr nonnull %5) #3
  %6 = getelementptr inbounds nuw i8, ptr %1, i64 8
  %7 = load ptr, ptr %6, align 8
  tail call void @col_set_str(ptr noundef %7, i32 noundef 35, ptr noundef nonnull @.str.238)
  %8 = load ptr, ptr %6, align 8
  tail call void @col_clear(ptr noundef %8, i32 noundef 25)
  %9 = load i32, ptr @ett_juniper, align 4
  %10 = tail call ptr @proto_tree_add_subtree(ptr noundef %2, ptr noundef %0, i32 noundef 0, i32 noundef 4, i32 noundef %9, ptr noundef null, ptr noundef nonnull @.str.238)
  %11 = call fastcc i32 @dissect_juniper_header(ptr noundef %0, ptr noundef %1, ptr noundef %2, ptr noundef %10, ptr noundef nonnull %5)
  %12 = icmp eq i32 %11, -1
  br i1 %12, label %23, label %13

13:                                               ; preds = %4
  %14 = tail call zeroext i16 @tvb_get_letohs(ptr noundef %0, i32 noundef %11)
  %15 = load i32, ptr @hf_juniper_proto, align 4
  %16 = zext i16 %14 to i32
  %17 = tail call ptr @proto_tree_add_uint(ptr noundef %10, i32 noundef %15, ptr noundef %0, i32 noundef %11, i32 noundef 2, i32 noundef %16)
  %18 = load i32, ptr @hf_juniper_vlan, align 4
  %19 = add nuw nsw i32 %11, 2
  %20 = tail call ptr @proto_tree_add_item(ptr noundef %10, i32 noundef %18, ptr noundef %0, i32 noundef %19, i32 noundef 2, i32 noundef -2147483648)
  %21 = add nuw nsw i32 %11, 4
  tail call fastcc void @dissect_juniper_payload_proto(ptr noundef %0, ptr noundef %1, ptr noundef %2, ptr noundef %10, i32 noundef %16, i32 noundef %21)
  %22 = tail call i32 @tvb_captured_length(ptr noundef %0)
  br label %23

23:                                               ; preds = %4, %13
  %.0 = phi i32 [ %22, %13 ], [ 4, %4 ]
  call void @llvm.lifetime.end.p0(i64 1, ptr nonnull %5) #3
  ret i32 %.0
}